Certificate:
    Data:
        Version: 3 (0x2)
        Serial Number: 4096 (0x1000)
        Signature Algorithm: sha256WithRSAEncryption
        Issuer: C=RO, ST=CJ, L=Cluj-Napoca, O=UTCN, OU=UTCN, CN=Birlutiu Claudiu/emailAddress=birlutiuclaudiuc@gmail.com
        Validity
            Not Before: Apr 21 23:55:26 2023 GMT
            Not After : Apr 18 23:55:26 2033 GMT
        Subject: C=RO, O=Birlutiu2023 Inc., CN=www.birlutiu2023.com
        Subject Public Key Info:
            Public Key Algorithm: rsaEncryption
                RSA Public-Key: (2048 bit)
                Modulus:
                    00:9f:87:a1:0c:f9:f1:a6:5b:83:c0:1c:a3:69:3d:
                    15:ed:a9:4c:42:d2:0c:c3:a8:df:55:e4:98:c8:9d:
                    f5:2c:14:68:de:d9:41:62:65:bd:d2:57:2c:9a:2f:
                    e7:54:28:63:62:9a:54:0a:dc:69:59:63:d6:af:2d:
                    93:8e:a2:b8:97:43:81:95:63:ea:09:a3:a8:90:7c:
                    9f:ed:56:3d:51:2a:4e:16:4f:76:b5:2e:0e:d1:99:
                    97:94:ce:5f:be:9a:f9:34:a3:89:9f:c2:e3:7b:cc:
                    8c:a8:6c:98:47:49:d5:5f:c0:e4:f7:87:e2:90:f1:
                    3a:6a:e2:4a:b3:14:39:f1:35:cb:19:1c:f2:f6:13:
                    20:6a:cc:d0:81:9a:2d:0c:a6:e1:35:5f:2a:43:17:
                    d3:7f:89:1b:76:57:5c:a1:95:0f:b9:d9:1b:75:07:
                    ae:5a:77:8e:43:33:54:e7:e9:dc:36:e1:3e:9b:28:
                    bb:94:5d:33:b0:fe:63:75:54:47:fb:3f:b5:2c:33:
                    8e:d3:1a:a2:9f:1f:b6:3c:74:dc:10:78:dc:53:ec:
                    5e:8a:18:35:39:09:f4:6c:2c:c8:a9:b7:11:41:f8:
                    a1:e5:7a:c3:17:63:fd:c6:17:e6:29:e6:ec:d3:25:
                    34:13:00:c3:74:ef:cc:97:ad:4b:83:eb:0d:0b:7c:
                    77:13
                Exponent: 65537 (0x10001)
        X509v3 extensions:
            X509v3 Basic Constraints: 
                CA:FALSE
            Netscape Comment: 
                OpenSSL Generated Certificate
            X509v3 Subject Key Identifier: 
                DD:32:72:48:03:E6:C6:DA:80:BA:04:8E:25:42:52:94:6D:E3:14:94
            X509v3 Authority Key Identifier: 
                keyid:A0:60:47:1D:04:AD:69:AC:7B:78:FA:3C:92:33:25:F3:4C:B1:F7:E5

            X509v3 Subject Alternative Name: 
                DNS:www.bank32.com, DNS:www.bank32A.com, DNS:www.bank32B.com, DNS:www.birlutiu2023.com, DNS:wwww.birlutiu2023A.com, DNS:www.birlutiu2023B.com
    Signature Algorithm: sha256WithRSAEncryption
         4b:63:53:43:69:de:c2:a3:d3:43:20:ca:77:cc:f9:4e:05:94:
         68:fc:15:2a:26:81:be:df:4e:2e:65:98:11:65:e9:a2:eb:ba:
         3c:8b:45:a5:cd:a7:f5:5f:91:4c:b4:ff:cb:cf:19:e6:53:29:
         ee:e0:50:90:d5:a7:42:bc:63:b3:ac:a5:d4:cf:4e:32:9b:c2:
         f8:7f:f0:e3:54:e3:d9:9f:a3:0a:44:f4:5b:0b:80:1a:b5:70:
         dd:5e:aa:2e:7b:fb:41:93:80:33:a0:e9:43:85:b2:4e:dc:df:
         10:92:f3:05:07:e5:ea:22:a4:15:f4:23:2e:11:89:9d:63:a5:
         c7:06:84:31:1d:1e:54:ea:39:98:e9:45:64:96:1f:0e:3a:9b:
         32:c0:76:f2:a2:9d:4c:66:87:1f:f7:cd:fa:47:41:1b:ad:e5:
         aa:6c:5d:d2:52:e4:8a:0c:3f:db:5a:f0:65:a6:4a:b5:f3:05:
         c2:77:b8:e8:51:dd:5c:42:d4:e8:47:37:0a:f0:f1:b8:83:29:
         c1:39:ba:31:e6:8d:40:f5:fc:85:56:d0:e3:48:d2:f3:25:5d:
         e2:58:31:c7:ee:14:2c:ee:14:0a:6e:df:0f:0e:7e:17:a0:41:
         6a:4d:a9:ac:ff:a8:8a:3c:0c:bd:af:62:51:60:a8:cc:1f:65:
         f8:d3:30:bc:f5:9f:03:2b:6c:24:be:53:fb:5d:42:6d:96:46:
         2a:15:4d:29:b4:f2:47:26:92:e6:ef:f5:cb:d3:18:57:bd:83:
         12:ce:53:5c:db:bb:8f:32:0a:c8:44:df:bf:2e:b9:93:b0:de:
         42:57:08:1f:18:21:af:e8:8c:36:b9:ab:61:b0:9e:ac:70:5b:
         39:08:bb:47:05:06:d6:54:5f:ca:08:80:30:f4:3d:d4:55:cd:
         1f:c0:43:a9:ee:a5:16:6f:38:6c:3d:9c:4d:53:64:ec:97:ec:
         55:f4:88:33:92:27:bb:7c:d6:af:28:82:d7:47:67:5e:0c:14:
         60:d7:aa:1e:6e:c4:66:f9:5b:c6:bf:8a:5f:4a:ba:9b:53:4c:
         eb:76:ee:6d:4b:59:99:de:d6:44:e1:16:57:61:46:39:1a:58:
         8c:a9:cd:2f:20:bd:67:0d:07:41:5c:7e:9a:52:4d:d6:a6:3a:
         42:19:13:46:f7:85:ae:fe:2f:46:48:66:c5:5d:9b:de:c5:a0:
         ae:8b:a5:6b:5f:ed:1b:7c:1b:0a:e9:7b:67:0f:3c:36:f5:e9:
         ec:dc:07:9a:94:cf:a7:5a:41:70:f4:45:47:47:ce:62:49:8b:
         49:88:42:a6:3a:c7:a9:b7:77:75:d4:a0:c9:bd:7a:52:7a:78:
         4c:5c:74:ee:35:38:c7:6f
-----BEGIN CERTIFICATE-----
MIIFWTCCA0GgAwIBAgICEAAwDQYJKoZIhvcNAQELBQAwgZQxCzAJBgNVBAYTAlJP
MQswCQYDVQQIDAJDSjEUMBIGA1UEBwwLQ2x1ai1OYXBvY2ExDTALBgNVBAoMBFVU
Q04xDTALBgNVBAsMBFVUQ04xGTAXBgNVBAMMEEJpcmx1dGl1IENsYXVkaXUxKTAn
BgkqhkiG9w0BCQEWGmJpcmx1dGl1Y2xhdWRpdWNAZ21haWwuY29tMB4XDTIzMDQy
MTIzNTUyNloXDTMzMDQxODIzNTUyNlowSDELMAkGA1UEBhMCUk8xGjAYBgNVBAoM
EUJpcmx1dGl1MjAyMyBJbmMuMR0wGwYDVQQDDBR3d3cuYmlybHV0aXUyMDIzLmNv
bTCCASIwDQYJKoZIhvcNAQEBBQADggEPADCCAQoCggEBAJ+HoQz58aZbg8Aco2k9
Fe2pTELSDMOo31XkmMid9SwUaN7ZQWJlvdJXLJov51QoY2KaVArcaVlj1q8tk46i
uJdDgZVj6gmjqJB8n+1WPVEqThZPdrUuDtGZl5TOX76a+TSjiZ/C43vMjKhsmEdJ
1V/A5PeH4pDxOmriSrMUOfE1yxkc8vYTIGrM0IGaLQym4TVfKkMX03+JG3ZXXKGV
D7nZG3UHrlp3jkMzVOfp3DbhPpsou5RdM7D+Y3VUR/s/tSwzjtMaop8ftjx03BB4
3FPsXooYNTkJ9GwsyKm3EUH4oeV6wxdj/cYX5inm7NMlNBMAw3TvzJetS4PrDQt8
dxMCAwEAAaOB/zCB/DAJBgNVHRMEAjAAMCwGCWCGSAGG+EIBDQQfFh1PcGVuU1NM
IEdlbmVyYXRlZCBDZXJ0aWZpY2F0ZTAdBgNVHQ4EFgQU3TJySAPmxtqAugSOJUJS
lG3jFJQwHwYDVR0jBBgwFoAUoGBHHQStaax7ePo8kjMl80yx9+UwgYAGA1UdEQR5
MHeCDnd3dy5iYW5rMzIuY29tgg93d3cuYmFuazMyQS5jb22CD3d3dy5iYW5rMzJC
LmNvbYIUd3d3LmJpcmx1dGl1MjAyMy5jb22CFnd3d3cuYmlybHV0aXUyMDIzQS5j
b22CFXd3dy5iaXJsdXRpdTIwMjNCLmNvbTANBgkqhkiG9w0BAQsFAAOCAgEAS2NT
Q2newqPTQyDKd8z5TgWUaPwVKiaBvt9OLmWYEWXpouu6PItFpc2n9V+RTLT/y88Z
5lMp7uBQkNWnQrxjs6yl1M9OMpvC+H/w41Tj2Z+jCkT0WwuAGrVw3V6qLnv7QZOA
M6DpQ4WyTtzfEJLzBQfl6iKkFfQjLhGJnWOlxwaEMR0eVOo5mOlFZJYfDjqbMsB2
8qKdTGaHH/fN+kdBG63lqmxd0lLkigw/21rwZaZKtfMFwne46FHdXELU6Ec3CvDx
uIMpwTm6MeaNQPX8hVbQ40jS8yVd4lgxx+4ULO4UCm7fDw5+F6BBak2prP+oijwM
va9iUWCozB9l+NMwvPWfAytsJL5T+11CbZZGKhVNKbTyRyaS5u/1y9MYV72DEs5T
XNu7jzIKyETfvy65k7DeQlcIHxghr+iMNrmrYbCerHBbOQi7RwUG1lRfygiAMPQ9
1FXNH8BDqe6lFm84bD2cTVNk7JfsVfSIM5Inu3zWryiC10dnXgwUYNeqHm7EZvlb
xr+KX0q6m1NM63bubUtZmd7WROEWV2FGORpYjKnNLyC9Zw0HQVx+mlJN1qY6QhkT
RveFrv4vRkhmxV2b3sWgroula1/tG3wbCul7Zw88NvXp7NwHmpTPp1pBcPRFR0fO
YkmLSYhCpjrHqbd3ddSgyb16Unp4TFx07jU4x28=
-----END CERTIFICATE-----
