Certificate:
    Data:
        Version: 3 (0x2)
        Serial Number: 4096 (0x1000)
        Signature Algorithm: sha256WithRSAEncryption
        Issuer: CN=www.emag.ro, O=Emag CA LTD., C=US
        Validity
            Not Before: Apr 25 22:39:29 2023 GMT
            Not After : Apr 22 22:39:29 2033 GMT
        Subject: C=US, O=Emag Inc., CN=www.emag.ro
        Subject Public Key Info:
            Public Key Algorithm: rsaEncryption
                RSA Public-Key: (2048 bit)
                Modulus:
                    00:ca:fa:7c:7d:c3:b6:f9:39:19:7e:5f:d1:f9:4c:
                    c9:5a:77:16:a4:7f:22:94:28:b8:a1:6a:b4:aa:27:
                    04:b9:13:68:d5:bb:53:34:31:5d:98:fb:c2:fe:ba:
                    0f:19:5f:df:b1:c7:f4:77:7b:95:4c:e6:c5:06:31:
                    7e:a1:91:43:0c:a7:18:a4:5c:0c:20:f0:bd:68:9c:
                    97:a8:a3:00:0d:4c:4b:66:21:f0:0a:82:d4:e1:c2:
                    06:aa:30:b3:6b:55:be:27:c6:fc:a3:6a:a0:ee:6d:
                    85:5b:e7:0f:b1:81:d4:6f:c2:45:5b:28:98:7a:73:
                    4b:27:ae:6f:f6:c2:65:ba:ef:b4:00:7f:0a:83:ed:
                    5e:68:47:87:07:bd:23:28:e3:35:a6:61:51:c0:1d:
                    17:3d:a6:ed:0c:ac:15:61:de:72:53:e5:9e:ae:19:
                    60:54:38:6c:5c:ae:89:1d:1f:dd:23:b9:57:1f:33:
                    cd:25:40:3b:04:bd:95:35:fe:9c:10:9f:47:d1:99:
                    7e:72:08:57:38:ae:25:0e:17:7a:61:90:80:b2:ee:
                    82:15:1f:0d:9e:f3:7f:64:c6:7d:61:fb:6e:d6:26:
                    5d:2b:78:b4:42:24:85:40:ba:b1:87:e1:2d:e7:28:
                    22:e9:35:5f:41:88:dc:3d:1f:b5:3f:4d:fe:13:df:
                    88:85
                Exponent: 65537 (0x10001)
        X509v3 extensions:
            X509v3 Basic Constraints: 
                CA:FALSE
            Netscape Comment: 
                OpenSSL Generated Certificate
            X509v3 Subject Key Identifier: 
                8C:A4:7A:8A:FC:86:A9:20:3F:05:AB:FD:FD:80:0F:DF:5A:DC:54:2D
            X509v3 Authority Key Identifier: 
                keyid:91:C0:85:BB:5E:F3:10:07:A2:D3:24:94:9A:77:AA:D4:BB:5C:DC:4E

            X509v3 Subject Alternative Name: 
                DNS:www.emag.ro
    Signature Algorithm: sha256WithRSAEncryption
         5d:49:c3:32:eb:d7:75:8d:a8:c5:20:15:19:64:e9:95:92:a0:
         db:c1:08:3e:54:de:53:ca:b6:23:ca:99:f2:20:d4:37:78:07:
         65:47:1e:91:7d:69:ea:af:27:5b:fe:8e:50:d6:f1:bc:81:da:
         e5:73:01:5a:7e:3c:fc:98:43:c9:29:3b:94:e4:24:d4:2b:2a:
         ab:8b:33:b6:d2:5e:c6:00:9d:33:f3:57:1c:be:af:3d:14:b3:
         e9:00:b9:4a:ae:38:9c:e9:5e:dd:e4:ae:22:93:37:51:a3:06:
         70:84:d8:56:a8:7b:f6:2f:49:a3:4b:d8:c2:19:de:91:ae:df:
         c6:ab:1a:d0:75:6f:1b:26:0f:34:99:49:fa:24:42:42:c8:ed:
         22:0f:88:3d:13:d2:27:69:27:d5:df:d4:a5:72:71:33:0a:32:
         93:c9:97:69:98:87:aa:bd:a6:89:ad:fe:9f:7d:80:54:36:f0:
         b2:ad:89:7e:f0:92:50:af:a6:90:25:fc:69:65:0e:33:01:47:
         8f:e2:15:0f:7c:cc:ac:06:90:a3:19:61:ef:52:e7:31:26:06:
         28:56:1b:86:2b:e7:b5:a2:0e:b6:4f:fb:a6:27:78:fa:67:6f:
         91:29:17:79:a4:16:b2:33:e4:b8:e5:48:0a:ea:ea:22:7d:49:
         bc:a4:6d:5e:4a:9f:5f:c3:b0:6d:58:2b:39:e3:31:50:f0:c1:
         0f:55:ea:bd:27:a3:39:53:4d:5d:e6:4b:ae:a9:cb:76:b1:89:
         72:8d:27:99:e3:38:27:50:48:46:75:08:8f:42:97:cd:7c:b6:
         4c:2e:9b:8f:27:d8:62:92:85:e2:5b:d8:4d:9d:1f:51:e4:eb:
         2d:ce:da:3e:6f:5b:1b:92:d3:fd:77:2b:87:40:7b:24:ce:7d:
         12:32:04:39:83:07:f5:d4:eb:dd:df:6c:45:4a:b1:27:7f:66:
         24:29:9c:cc:74:57:bf:ec:ef:49:91:60:a9:96:0b:b3:5a:29:
         3a:1e:db:11:df:76:75:24:9c:89:11:59:67:22:bd:ff:f2:c3:
         e6:58:09:88:72:16:83:ce:03:a6:c3:95:07:19:9a:b5:36:c7:
         1d:b3:2a:6f:88:60:5f:61:7c:66:7c:62:cb:88:fe:6d:35:8c:
         fc:6f:32:2f:ee:f3:dd:70:c2:c5:08:57:b7:4f:d9:83:49:49:
         cd:db:a8:9c:f7:df:cc:83:f1:b6:d1:14:ab:85:58:af:04:ba:
         79:5b:f9:82:cc:c2:92:63:48:fa:d6:7b:92:41:a7:e2:32:33:
         ec:3e:1e:98:c1:ee:ae:97:7f:7a:4a:8e:a7:e9:61:35:88:85:
         3f:d2:3a:01:71:6a:5b:f5
-----BEGIN CERTIFICATE-----
MIIEgjCCAmqgAwIBAgICEAAwDQYJKoZIhvcNAQELBQAwOjEUMBIGA1UEAwwLd3d3
LmVtYWcucm8xFTATBgNVBAoMDEVtYWcgQ0EgTFRELjELMAkGA1UEBhMCVVMwHhcN
MjMwNDI1MjIzOTI5WhcNMzMwNDIyMjIzOTI5WjA3MQswCQYDVQQGEwJVUzESMBAG
A1UECgwJRW1hZyBJbmMuMRQwEgYDVQQDDAt3d3cuZW1hZy5ybzCCASIwDQYJKoZI
hvcNAQEBBQADggEPADCCAQoCggEBAMr6fH3Dtvk5GX5f0flMyVp3FqR/IpQouKFq
tKonBLkTaNW7UzQxXZj7wv66Dxlf37HH9Hd7lUzmxQYxfqGRQwynGKRcDCDwvWic
l6ijAA1MS2Yh8AqC1OHCBqows2tVvifG/KNqoO5thVvnD7GB1G/CRVsomHpzSyeu
b/bCZbrvtAB/CoPtXmhHhwe9IyjjNaZhUcAdFz2m7QysFWHeclPlnq4ZYFQ4bFyu
iR0f3SO5Vx8zzSVAOwS9lTX+nBCfR9GZfnIIVziuJQ4XemGQgLLughUfDZ7zf2TG
fWH7btYmXSt4tEIkhUC6sYfhLecoIuk1X0GI3D0ftT9N/hPfiIUCAwEAAaOBlDCB
kTAJBgNVHRMEAjAAMCwGCWCGSAGG+EIBDQQfFh1PcGVuU1NMIEdlbmVyYXRlZCBD
ZXJ0aWZpY2F0ZTAdBgNVHQ4EFgQUjKR6ivyGqSA/Bav9/YAP31rcVC0wHwYDVR0j
BBgwFoAUkcCFu17zEAei0ySUmneq1Ltc3E4wFgYDVR0RBA8wDYILd3d3LmVtYWcu
cm8wDQYJKoZIhvcNAQELBQADggIBAF1JwzLr13WNqMUgFRlk6ZWSoNvBCD5U3lPK
tiPKmfIg1Dd4B2VHHpF9aeqvJ1v+jlDW8byB2uVzAVp+PPyYQ8kpO5TkJNQrKquL
M7bSXsYAnTPzVxy+rz0Us+kAuUquOJzpXt3kriKTN1GjBnCE2Faoe/YvSaNL2MIZ
3pGu38arGtB1bxsmDzSZSfokQkLI7SIPiD0T0idpJ9Xf1KVycTMKMpPJl2mYh6q9
pomt/p99gFQ28LKtiX7wklCvppAl/GllDjMBR4/iFQ98zKwGkKMZYe9S5zEmBihW
G4Yr57WiDrZP+6YnePpnb5EpF3mkFrIz5LjlSArq6iJ9SbykbV5Kn1/DsG1YKznj
MVDwwQ9V6r0nozlTTV3mS66py3axiXKNJ5njOCdQSEZ1CI9Cl818tkwum48n2GKS
heJb2E2dH1Hk6y3O2j5vWxuS0/13K4dAeyTOfRIyBDmDB/XU693fbEVKsSd/ZiQp
nMx0V7/s70mRYKmWC7NaKToe2xHfdnUknIkRWWcivf/yw+ZYCYhyFoPOA6bDlQcZ
mrU2xx2zKm+IYF9hfGZ8YsuI/m01jPxvMi/u891wwsUIV7dP2YNJSc3bqJz338yD
8bbRFKuFWK8Eunlb+YLMwpJjSPrWe5JBp+IyM+w+HpjB7q6Xf3pKjqfpYTWIhT/S
OgFxalv1
-----END CERTIFICATE-----
